Certificate:
    Data:
        Version: 3 (0x2)
        Serial Number: 0 (0x0)
        Signature Algorithm: sha1WithRSAEncryption
        Issuer: C=US, ST=California, O=mycompany, OU=mygroup, CN=myname/emailAddress=myname@mycompany.com
        Validity
            Not Before: Aug  1 14:47:48 2014 GMT
            Not After : Jul 31 14:47:48 2017 GMT
        Subject: C=US, ST=California, O=mycompany, OU=mygroup, CN=myname/emailAddress=myname@mycompany.com
        Subject Public Key Info:
            Public Key Algorithm: rsaEncryption
            RSA Public Key: (1024 bit)
                Modulus (1024 bit):
                    00:dc:42:24:7b:13:84:15:ce:e7:e7:82:eb:e3:17:
                    3a:66:f5:da:c5:d0:fc:81:b8:95:5a:cc:f4:1f:79:
                    70:1b:78:c7:fc:72:82:f4:20:32:c1:07:35:bb:5b:
                    cd:89:fc:46:c9:90:e8:d8:d3:f9:b8:80:0d:a0:97:
                    df:88:84:78:9a:7e:ca:1c:e9:e9:a0:bb:f7:b5:08:
                    f3:de:89:32:6e:5b:a8:53:6f:86:81:68:cd:b9:ed:
                    77:f6:aa:13:68:b6:6f:e0:7c:ed:4f:04:17:7f:53:
                    41:d8:d6:d2:c3:dd:d8:db:e4:d1:88:d4:83:c8:0d:
                    a9:25:62:07:97:df:cb:19:17
                Exponent: 65537 (0x10001)
        X509v3 extensions:
            X509v3 Basic Constraints: 
                CA:FALSE
            Netscape Comment: 
                Symas OpenSSL Generated Certificate
            X509v3 Subject Key Identifier: 
                83:E0:29:10:92:D5:F4:14:0A:7D:5F:2D:E8:02:10:58:6B:58:C4:84
            X509v3 Authority Key Identifier: 
                keyid:83:E0:29:10:92:D5:F4:14:0A:7D:5F:2D:E8:02:10:58:6B:58:C4:84

    Signature Algorithm: sha1WithRSAEncryption
        d4:19:eb:92:80:42:06:73:c5:eb:20:03:5e:7b:4d:c7:24:4a:
        80:b7:18:82:35:ee:b0:f4:08:c0:8f:8e:3e:1a:1e:3d:91:52:
        b6:bc:bc:a8:b9:a5:19:e4:8b:dd:19:27:b2:a4:76:f9:8c:41:
        25:ee:ba:76:64:50:c4:65:ef:48:4c:df:50:be:58:cd:77:17:
        2e:d7:08:05:1a:b1:e3:2e:4c:0b:cc:69:08:f7:60:be:13:86:
        e5:f5:da:42:64:26:36:1c:0a:f6:d1:cb:db:21:8d:61:6c:f8:
        69:70:f6:f8:77:2c:fe:8a:f9:dc:e3:1b:d5:02:47:39:22:cc:
        15:26
-----BEGIN CERTIFICATE-----
MIIC9DCCAl2gAwIBAgIBADANBgkqhkiG9w0BAQUFADB+MQswCQYDVQQGEwJVUzET
MBEGA1UECBMKQ2FsaWZvcm5pYTESMBAGA1UEChMJbXljb21wYW55MRAwDgYDVQQL
EwdteWdyb3VwMQ8wDQYDVQQDEwZteW5hbWUxIzAhBgkqhkiG9w0BCQEWFG15bmFt
ZUBteWNvbXBhbnkuY29tMB4XDTE0MDgwMTE0NDc0OFoXDTE3MDczMTE0NDc0OFow
fjELMAkGA1UEBhMCVVMxEzARBgNVBAgTCkNhbGlmb3JuaWExEjAQBgNVBAoTCW15
Y29tcGFueTEQMA4GA1UECxMHbXlncm91cDEPMA0GA1UEAxMGbXluYW1lMSMwIQYJ
KoZIhvcNAQkBFhRteW5hbWVAbXljb21wYW55LmNvbTCBnzANBgkqhkiG9w0BAQEF
AAOBjQAwgYkCgYEA3EIkexOEFc7n54Lr4xc6ZvXaxdD8gbiVWsz0H3lwG3jH/HKC
9CAywQc1u1vNifxGyZDo2NP5uIANoJffiIR4mn7KHOnpoLv3tQjz3okybluoU2+G
gWjNue139qoTaLZv4HztTwQXf1NB2NbSw93Y2+TRiNSDyA2pJWIHl9/LGRcCAwEA
AaOBgTB/MAkGA1UdEwQCMAAwMgYJYIZIAYb4QgENBCUWI1N5bWFzIE9wZW5TU0wg
R2VuZXJhdGVkIENlcnRpZmljYXRlMB0GA1UdDgQWBBSD4CkQktX0FAp9Xy3oAhBY
a1jEhDAfBgNVHSMEGDAWgBSD4CkQktX0FAp9Xy3oAhBYa1jEhDANBgkqhkiG9w0B
AQUFAAOBgQDUGeuSgEIGc8XrIANee03HJEqAtxiCNe6w9AjAj44+Gh49kVK2vLyo
uaUZ5IvdGSeypHb5jEEl7rp2ZFDEZe9ITN9QvljNdxcu1wgFGrHjLkwLzGkI92C+
E4bl9dpCZCY2HAr20cvbIY1hbPhpcPb4dyz+ivnc4xvVAkc5IswVJg==
-----END CERTIFICATE-----
