Certificate:
    Data:
        Version: 3 (0x2)
        Serial Number: 1 (0x1)
        Signature Algorithm: sha1WithRSAEncryption
        Issuer: C=US, ST=California, O=mycompany, OU=mygroup, CN=myname/emailAddress=myname@mycompany.com
        Validity
            Not Before: Aug  1 15:00:33 2014 GMT
            Not After : Aug  1 15:00:33 2015 GMT
        Subject: C=US, ST=California, L=JoshuaTree, O=mycompany, OU=mygroup, CN=mysqlhost/emailAddress=myname@mycompany.com
        Subject Public Key Info:
            Public Key Algorithm: rsaEncryption
            RSA Public Key: (1024 bit)
                Modulus (1024 bit):
                    00:e0:88:5b:7a:6c:15:bd:c5:d1:c4:49:fe:c2:41:
                    21:cf:84:74:b0:08:60:b6:51:db:51:be:3a:c5:ed:
                    c1:b0:26:5b:9b:3e:5a:f1:14:e0:77:59:d6:5d:b3:
                    26:e6:b6:a1:7b:8b:8f:72:24:7f:00:f0:54:a9:7c:
                    a6:47:d9:8a:01:3c:5a:dc:0f:12:f2:e3:fa:b2:91:
                    5b:21:2a:cf:fc:c1:8e:a3:e7:67:61:8d:9a:fa:c8:
                    b5:a9:57:8d:40:71:72:d5:f1:9c:1f:a4:f4:de:80:
                    dc:53:9b:01:bf:e8:24:97:f4:1b:45:a2:28:94:40:
                    4b:b4:ba:b1:4b:cd:3c:21:53
                Exponent: 65537 (0x10001)
        X509v3 extensions:
            X509v3 Basic Constraints: 
                CA:FALSE
            Netscape Comment: 
                Symas OpenSSL Generated Certificate
            X509v3 Subject Key Identifier: 
                BF:6C:4B:7D:54:F7:BA:00:04:03:C1:89:86:3B:45:A7:DB:F2:52:19
            X509v3 Authority Key Identifier: 
                keyid:83:E0:29:10:92:D5:F4:14:0A:7D:5F:2D:E8:02:10:58:6B:58:C4:84

    Signature Algorithm: sha1WithRSAEncryption
        a5:64:4a:45:0e:c0:f1:3a:e9:e7:5e:9f:c1:7c:0b:46:34:d2:
        71:ab:20:a1:dd:ce:54:4f:97:c1:58:26:7f:19:bd:ff:79:76:
        53:3c:4e:4b:ca:9b:40:f9:00:e3:34:a3:05:da:74:af:30:c6:
        f8:dd:79:58:11:78:fb:3e:d5:80:c4:06:1b:1d:45:65:f9:96:
        e8:35:91:14:77:77:d4:e5:81:ba:8e:20:43:b7:e5:4d:80:be:
        d9:d9:45:f8:85:0a:1b:93:e6:3c:c2:2a:75:fa:ca:d8:44:02:
        36:57:15:65:10:7d:b8:ed:39:60:a3:06:cf:62:20:64:03:97:
        57:3a
-----BEGIN CERTIFICATE-----
MIIDDTCCAnagAwIBAgIBATANBgkqhkiG9w0BAQUFADB+MQswCQYDVQQGEwJVUzET
MBEGA1UECBMKQ2FsaWZvcm5pYTESMBAGA1UEChMJbXljb21wYW55MRAwDgYDVQQL
EwdteWdyb3VwMQ8wDQYDVQQDEwZteW5hbWUxIzAhBgkqhkiG9w0BCQEWFG15bmFt
ZUBteWNvbXBhbnkuY29tMB4XDTE0MDgwMTE1MDAzM1oXDTE1MDgwMTE1MDAzM1ow
gZYxCzAJBgNVBAYTAlVTMRMwEQYDVQQIEwpDYWxpZm9ybmlhMRMwEQYDVQQHEwpK
b3NodWFUcmVlMRIwEAYDVQQKEwlteWNvbXBhbnkxEDAOBgNVBAsTB215Z3JvdXAx
EjAQBgNVBAMTCW15c3FsaG9zdDEjMCEGCSqGSIb3DQEJARYUbXluYW1lQG15Y29t
cGFueS5jb20wgZ8wDQYJKoZIhvcNAQEBBQADgY0AMIGJAoGBAOCIW3psFb3F0cRJ
/sJBIc+EdLAIYLZR21G+OsXtwbAmW5s+WvEU4HdZ1l2zJua2oXuLj3IkfwDwVKl8
pkfZigE8WtwPEvLj+rKRWyEqz/zBjqPnZ2GNmvrItalXjUBxctXxnB+k9N6A3FOb
Ab/oJJf0G0WiKJRAS7S6sUvNPCFTAgMBAAGjgYEwfzAJBgNVHRMEAjAAMDIGCWCG
SAGG+EIBDQQlFiNTeW1hcyBPcGVuU1NMIEdlbmVyYXRlZCBDZXJ0aWZpY2F0ZTAd
BgNVHQ4EFgQUv2xLfVT3ugAEA8GJhjtFp9vyUhkwHwYDVR0jBBgwFoAUg+ApEJLV
9BQKfV8t6AIQWGtYxIQwDQYJKoZIhvcNAQEFBQADgYEApWRKRQ7A8Trp516fwXwL
RjTScasgod3OVE+XwVgmfxm9/3l2UzxOS8qbQPkA4zSjBdp0rzDG+N15WBF4+z7V
gMQGGx1FZfmW6DWRFHd31OWBuo4gQ7flTYC+2dlF+IUKG5PmPMIqdfrK2EQCNlcV
ZRB9uO05YKMGz2IgZAOXVzo=
-----END CERTIFICATE-----
